; Function Attrs: uwtable
define void @_ZTv0_n40_N8QuantLib8CapFloor10deepUpdateEv(ptr noundef %this) unnamed_addr #13 align 2 {
entry:
  %vtable = load ptr, ptr %this, align 8, !tbaa !33
  %0 = getelementptr inbounds i8, ptr %vtable, i64 -40
  %1 = load i64, ptr %0, align 8
  %2 = getelementptr inbounds i8, ptr %this, i64 %1
  %floatingLeg_.i = getelementptr inbounds nuw i8, ptr %2, i64 112
  %3 = load ptr, ptr %floatingLeg_.i, align 8, !tbaa !3
  %_M_finish.i.i = getelementptr inbounds nuw i8, ptr %2, i64 120
  %4 = load ptr, ptr %_M_finish.i.i, align 8, !tbaa !3
  %cmp.i.not4.i = icmp eq ptr %3, %4
  br i1 %cmp.i.not4.i, label %_ZN8QuantLib8CapFloor10deepUpdateEv.exit, label %for.body.i

for.body.i:                                       ; preds = %entry, %_ZNK5boost10shared_ptrIN8QuantLib8CashFlowEEptEv.exit.i
  %__begin1.sroa.0.05.i = phi ptr [ %incdec.ptr.i.i, %_ZNK5boost10shared_ptrIN8QuantLib8CashFlowEEptEv.exit.i ], [ %3, %entry ]
  %5 = load ptr, ptr %__begin1.sroa.0.05.i, align 8, !tbaa !74
  %cmp.not.i.i = icmp eq ptr %5, null
  br i1 %cmp.not.i.i, label %cond.false.i.i, label %_ZNK5boost10shared_ptrIN8QuantLib8CashFlowEEptEv.exit.i, !prof !94

cond.false.i.i:                                   ; preds = %for.body.i
  tail call void @_ZN5boost16assertion_failedEPKcS1_S1_l(ptr noundef nonnull @.str.32, ptr noundef nonnull @__PRETTY_FUNCTION__._ZNK5boost10shared_ptrIN8QuantLib8CashFlowEEptEv, ptr noundef nonnull @.str.33, i64 noundef 784)
  %.pre.i.i = load ptr, ptr %__begin1.sroa.0.05.i, align 8, !tbaa !74
  br label %_ZNK5boost10shared_ptrIN8QuantLib8CashFlowEEptEv.exit.i

_ZNK5boost10shared_ptrIN8QuantLib8CashFlowEEptEv.exit.i: ; preds = %cond.false.i.i, %for.body.i
  %6 = phi ptr [ %5, %for.body.i ], [ %.pre.i.i, %cond.false.i.i ]
  %vtable.i = load ptr, ptr %6, align 8, !tbaa !33
  %vbase.offset.ptr.i = getelementptr i8, ptr %vtable.i, i64 -32
  %vbase.offset.i = load i64, ptr %vbase.offset.ptr.i, align 8
  %add.ptr.i = getelementptr inbounds i8, ptr %6, i64 %vbase.offset.i
  %vtable7.i = load ptr, ptr %add.ptr.i, align 8, !tbaa !33
  %vfn.i = getelementptr inbounds i8, ptr %vtable7.i, i64 24
  %7 = load ptr, ptr %vfn.i, align 8
  tail call void %7(ptr noundef nonnull align 8 dereferenceable(56) %add.ptr.i)
  %incdec.ptr.i.i = getelementptr inbounds nuw i8, ptr %__begin1.sroa.0.05.i, i64 16
  %cmp.i.not.i = icmp eq ptr %incdec.ptr.i.i, %4
  br i1 %cmp.i.not.i, label %_ZN8QuantLib8CapFloor10deepUpdateEv.exit, label %for.body.i

_ZN8QuantLib8CapFloor10deepUpdateEv.exit:         ; preds = %_ZNK5boost10shared_ptrIN8QuantLib8CashFlowEEptEv.exit.i, %entry
  %vtable9.i = load ptr, ptr %2, align 8, !tbaa !33
  %vfn10.i = getelementptr inbounds i8, ptr %vtable9.i, i64 16
  %8 = load ptr, ptr %vfn10.i, align 8
  tail call void %8(ptr noundef nonnull align 8 dereferenceable(12) %2)
  ret void
}